; Function Attrs: mustprogress uwtable
define void @_ZN2cv9videostab18FastMarchingMethod7heapAddERKNS1_3DXYE(ptr noundef nonnull align 8 dereferenceable(324) %0, ptr noundef nonnull readonly align 4 captures(none) dereferenceable(12) %1) local_unnamed_addr #6 align 2 {
  %3 = alloca %"struct.cv::videostab::FastMarchingMethod::DXY", align 4
  %4 = getelementptr inbounds nuw i8, ptr %0, i64 296
  %5 = getelementptr inbounds nuw i8, ptr %0, i64 304
  %6 = load ptr, ptr %5, align 8, !tbaa !45
  %7 = load ptr, ptr %4, align 8, !tbaa !35
  %8 = ptrtoint ptr %6 to i64
  %9 = ptrtoint ptr %7 to i64
  %10 = sub i64 %8, %9
  %11 = sdiv exact i64 %10, 12
  %12 = trunc i64 %11 to i32
  %13 = getelementptr inbounds nuw i8, ptr %0, i64 320
  %14 = load i32, ptr %13, align 8, !tbaa !43
  %.not = icmp slt i32 %14, %12
  br i1 %.not, label %19, label %15

15:                                               ; preds = %2
  %16 = shl nsw i32 %14, 1
  %17 = or disjoint i32 %16, 1
  %18 = sext i32 %17 to i64
  tail call void @_ZNSt6vectorIN2cv9videostab18FastMarchingMethod3DXYESaIS3_EE6resizeEm(ptr noundef nonnull align 8 dereferenceable(24) %4, i64 noundef %18)
  %.pre = load i32, ptr %13, align 8, !tbaa !43
  %.pre3 = load ptr, ptr %4, align 8, !tbaa !35
  br label %19

19:                                               ; preds = %15, %2
  %20 = phi ptr [ %.pre3, %15 ], [ %7, %2 ]
  %21 = phi i32 [ %.pre, %15 ], [ %14, %2 ]
  %22 = sext i32 %21 to i64
  %23 = getelementptr inbounds nuw %"struct.cv::videostab::FastMarchingMethod::DXY", ptr %20, i64 %22
  tail call void @llvm.memcpy.p0.p0.i64(ptr noundef nonnull align 4 dereferenceable(12) %23, ptr noundef nonnull align 4 dereferenceable(12) %1, i64 12, i1 false), !tbaa.struct !40
  %24 = load i32, ptr %13, align 8, !tbaa !43
  %25 = add nsw i32 %24, 1
  store i32 %25, ptr %13, align 8, !tbaa !43
  %26 = getelementptr inbounds nuw i8, ptr %1, i64 8
  %27 = load i32, ptr %26, align 4, !tbaa !38
  %28 = getelementptr inbounds nuw i8, ptr %1, i64 4
  %29 = load i32, ptr %28, align 4, !tbaa !39
  %30 = getelementptr inbounds nuw i8, ptr %0, i64 216
  %31 = load ptr, ptr %30, align 8, !tbaa !28
  %32 = getelementptr inbounds nuw i8, ptr %0, i64 272
  %33 = load ptr, ptr %32, align 8, !tbaa !29
  %34 = load i64, ptr %33, align 8, !tbaa !30
  %35 = sext i32 %27 to i64
  %36 = mul i64 %34, %35
  %37 = getelementptr inbounds nuw i8, ptr %31, i64 %36
  %38 = sext i32 %29 to i64
  %39 = getelementptr inbounds i32, ptr %37, i64 %38
  store i32 %24, ptr %39, align 4, !tbaa !34
  %40 = load i32, ptr %13, align 8, !tbaa !43
  %41 = icmp sgt i32 %40, 1
  br i1 %41, label %.lr.ph.i.preheader, label %_ZN2cv9videostab18FastMarchingMethod6heapUpEi.exit

.lr.ph.i.preheader:                               ; preds = %19
  %42 = add nsw i32 %40, -1
  br label %.lr.ph.i

.lr.ph.i:                                         ; preds = %.lr.ph.i.preheader, %51
  %.01013.i = phi i32 [ %.014.i, %51 ], [ %42, %.lr.ph.i.preheader ]
  %.014.in.i = add nsw i32 %.01013.i, -1
  %.014.i = sdiv i32 %.014.in.i, 2
  %43 = zext nneg i32 %.01013.i to i64
  %44 = load ptr, ptr %4, align 8, !tbaa !35
  %45 = getelementptr inbounds nuw %"struct.cv::videostab::FastMarchingMethod::DXY", ptr %44, i64 %43
  %46 = sext i32 %.014.i to i64
  %47 = getelementptr inbounds nuw %"struct.cv::videostab::FastMarchingMethod::DXY", ptr %44, i64 %46
  %48 = load float, ptr %45, align 4, !tbaa !36
  %49 = load float, ptr %47, align 4, !tbaa !36
  %50 = fcmp olt float %48, %49
  br i1 %50, label %51, label %_ZN2cv9videostab18FastMarchingMethod6heapUpEi.exit

51:                                               ; preds = %.lr.ph.i
  %52 = getelementptr inbounds nuw i8, ptr %47, i64 8
  %53 = load i32, ptr %52, align 4, !tbaa !38
  %54 = getelementptr inbounds nuw i8, ptr %47, i64 4
  %55 = load i32, ptr %54, align 4, !tbaa !39
  %56 = load ptr, ptr %30, align 8, !tbaa !28
  %57 = load ptr, ptr %32, align 8, !tbaa !29
  %58 = load i64, ptr %57, align 8, !tbaa !30
  %59 = sext i32 %53 to i64
  %60 = mul i64 %58, %59
  %61 = getelementptr inbounds nuw i8, ptr %56, i64 %60
  %62 = sext i32 %55 to i64
  %63 = getelementptr inbounds i32, ptr %61, i64 %62
  %64 = getelementptr inbounds nuw i8, ptr %45, i64 8
  %65 = load i32, ptr %64, align 4, !tbaa !38
  %66 = getelementptr inbounds nuw i8, ptr %45, i64 4
  %67 = load i32, ptr %66, align 4, !tbaa !39
  %68 = sext i32 %65 to i64
  %69 = mul i64 %58, %68
  %70 = getelementptr inbounds nuw i8, ptr %56, i64 %69
  %71 = sext i32 %67 to i64
  %72 = getelementptr inbounds i32, ptr %70, i64 %71
  %73 = load i32, ptr %63, align 4, !tbaa !34
  %74 = load i32, ptr %72, align 4, !tbaa !34
  store i32 %74, ptr %63, align 4, !tbaa !34
  store i32 %73, ptr %72, align 4, !tbaa !34
  call void @llvm.lifetime.start.p0(i64 12, ptr nonnull %3)
  call void @llvm.memcpy.p0.p0.i64(ptr noundef nonnull align 4 dereferenceable(12) %3, ptr noundef nonnull align 4 dereferenceable(12) %47, i64 12, i1 false), !tbaa.struct !40
  tail call void @llvm.memcpy.p0.p0.i64(ptr noundef nonnull align 4 dereferenceable(12) %47, ptr noundef nonnull align 4 dereferenceable(12) %45, i64 12, i1 false), !tbaa.struct !40
  call void @llvm.memcpy.p0.p0.i64(ptr noundef nonnull align 4 dereferenceable(12) %45, ptr noundef nonnull align 4 dereferenceable(12) %3, i64 12, i1 false), !tbaa.struct !40
  call void @llvm.lifetime.end.p0(i64 12, ptr nonnull %3)
  %75 = icmp sgt i32 %.01013.i, 2
  br i1 %75, label %.lr.ph.i, label %_ZN2cv9videostab18FastMarchingMethod6heapUpEi.exit, !llvm.loop !41

_ZN2cv9videostab18FastMarchingMethod6heapUpEi.exit: ; preds = %.lr.ph.i, %51, %19
  ret void
}